target datalayout = "e-m:e-p270:32:32-p271:32:32-p272:64:64-i64:64-i128:128-f80:128-n8:16:32:64-S128"
target triple = "x86_64-pc-linux-gnu"

%struct.expert_field = type { i32, i32 }
%struct._packet_info = type { ptr, ptr, i32, i32, %struct.nstime_t, %struct.nstime_t, %struct.nstime_t, i8, ptr, ptr, ptr, ptr, %struct._address, %struct._address, %struct._address, %struct._address, %struct._address, %struct._address, i32, ptr, i8, [3 x i8], %struct.anon, i32, i32, i32, i32, ptr, i8, ptr, ptr, i16, i16, i32, i32, i16, i32, i32, ptr, ptr, ptr, i8, i8, i16, i16, i16, i32, i16, i16, ptr, ptr, ptr, ptr, ptr, i32, i32 }
%struct.nstime_t = type { i64, i32 }
%struct._address = type { i32, i32, ptr, ptr }
%struct.anon = type { i8, [3 x i8] }

@hf_ip_opt_ptr = internal global i32 0, align 4
@hf_ip_opt_overflow = internal global i32 0, align 4
@hf_ip_opt_flag = internal global i32 0, align 4
@hf_ip_opt_time_stamp = internal global i32 0, align 4
@hf_ip_opt_time_stamp_addr = internal global i32 0, align 4
@ett_ip_option_timestamp = internal global i32 0, align 4
@ei_ip_subopt_too_long = internal global %struct.expert_field zeroinitializer, align 4
@proto_ip_option_timestamp = internal global i32 0, align 4
@.str.589 = private unnamed_addr constant [1 x i8] zeroinitializer, align 1
@.str.602 = private unnamed_addr constant [5 x i8] c"%d%s\00", align 1
@.str.603 = private unnamed_addr constant [18 x i8] c" (header is full)\00", align 1
@.str.604 = private unnamed_addr constant [31 x i8] c" (points before first address)\00", align 1
@.str.605 = private unnamed_addr constant [29 x i8] c" (points to middle of field)\00", align 1
@.str.606 = private unnamed_addr constant [3 x i8] c"%s\00", align 1
@.str.607 = private unnamed_addr constant [2 x i8] c"-\00", align 1

; Function Attrs: null_pointer_is_valid sspstrong uwtable
define internal i32 @dissect_ipopt_timestamp(ptr noundef %0, ptr noundef %1, ptr noundef %2, ptr noundef %3) #1 {
  %5 = alloca ptr, align 8
  %6 = alloca ptr, align 8
  %7 = alloca ptr, align 8
  %8 = alloca ptr, align 8
  %9 = alloca ptr, align 8
  %10 = alloca ptr, align 8
  %11 = alloca i32, align 4
  %12 = alloca i32, align 4
  %13 = alloca i32, align 4
  %14 = alloca i32, align 4
  %15 = alloca i32, align 4
  %16 = alloca i32, align 4
  store ptr %0, ptr %5, align 8
  store ptr %1, ptr %6, align 8
  store ptr %2, ptr %7, align 8
  store ptr %3, ptr %8, align 8
  call void @llvm.lifetime.start.p0(i64 8, ptr %9) #12
  call void @llvm.lifetime.start.p0(i64 8, ptr %10) #12
  call void @llvm.lifetime.start.p0(i64 4, ptr %11) #12
  call void @llvm.lifetime.start.p0(i64 4, ptr %12) #12
  store i32 0, ptr %12, align 4
  call void @llvm.lifetime.start.p0(i64 4, ptr %13) #12
  call void @llvm.lifetime.start.p0(i64 4, ptr %14) #12
  call void @llvm.lifetime.start.p0(i64 4, ptr %15) #12
  store i32 0, ptr %15, align 4
  call void @llvm.lifetime.start.p0(i64 4, ptr %16) #12
  %17 = load ptr, ptr %5, align 8
  %18 = call i32 @tvb_reported_length(ptr noundef %17)
  store i32 %18, ptr %16, align 4
  %19 = load ptr, ptr %7, align 8
  %20 = load ptr, ptr %6, align 8
  %21 = load ptr, ptr %5, align 8
  %22 = load i32, ptr @proto_ip_option_timestamp, align 4
  %23 = load i32, ptr @ett_ip_option_timestamp, align 4
  %24 = load i32, ptr %16, align 4
  %25 = call ptr @ip_var_option_header(ptr noundef %19, ptr noundef %20, ptr noundef %21, i32 noundef %22, i32 noundef %23, ptr noundef %10, i32 noundef %24)
  store ptr %25, ptr %9, align 8
  %26 = load i32, ptr %12, align 4
  %27 = add i32 %26, 2
  store i32 %27, ptr %12, align 4
  %28 = load i32, ptr %16, align 4
  %29 = sub i32 %28, 2
  store i32 %29, ptr %16, align 4
  %30 = load ptr, ptr %5, align 8
  %31 = load i32, ptr %15, align 4
  %32 = load i32, ptr %12, align 4
  %33 = add i32 %31, %32
  %34 = call zeroext i8 @tvb_get_uint8(ptr noundef %30, i32 noundef %33)
  %35 = zext i8 %34 to i32
  store i32 %35, ptr %11, align 4
  %36 = load ptr, ptr %9, align 8
  %37 = load i32, ptr @hf_ip_opt_ptr, align 4
  %38 = load ptr, ptr %5, align 8
  %39 = load i32, ptr %15, align 4
  %40 = load i32, ptr %12, align 4
  %41 = add i32 %39, %40
  %42 = load i32, ptr %11, align 4
  %43 = load i32, ptr %11, align 4
  %44 = load i32, ptr %11, align 4
  %45 = icmp eq i32 %44, 1
  br i1 %45, label %46, label %47

46:                                               ; preds = %4
  br label %59

47:                                               ; preds = %4
  %48 = load i32, ptr %11, align 4
  %49 = icmp slt i32 %48, 5
  br i1 %49, label %50, label %51

50:                                               ; preds = %47
  br label %57

51:                                               ; preds = %47
  %52 = load i32, ptr %11, align 4
  %53 = sub i32 %52, 1
  %54 = and i32 %53, 3
  %55 = icmp ne i32 %54, 0
  %56 = select i1 %55, ptr @.str.605, ptr @.str.589
  br label %57

57:                                               ; preds = %51, %50
  %58 = phi ptr [ @.str.604, %50 ], [ %56, %51 ]
  br label %59

59:                                               ; preds = %57, %46
  %60 = phi ptr [ @.str.603, %46 ], [ %58, %57 ]
  %61 = call ptr (ptr, i32, ptr, i32, i32, i32, ptr, ...) @proto_tree_add_uint_format_value(ptr noundef %36, i32 noundef %37, ptr noundef %38, i32 noundef %41, i32 noundef 1, i32 noundef %42, ptr noundef @.str.602, i32 noundef %43, ptr noundef %60)
  %62 = load i32, ptr %12, align 4
  %63 = add i32 %62, 1
  store i32 %63, ptr %12, align 4
  %64 = load i32, ptr %16, align 4
  %65 = add i32 %64, -1
  store i32 %65, ptr %16, align 4
  %66 = load i32, ptr %11, align 4
  %67 = add i32 %66, -1
  store i32 %67, ptr %11, align 4
  %68 = load ptr, ptr %5, align 8
  %69 = load i32, ptr %15, align 4
  %70 = load i32, ptr %12, align 4
  %71 = add i32 %69, %70
  %72 = call zeroext i8 @tvb_get_uint8(ptr noundef %68, i32 noundef %71)
  %73 = zext i8 %72 to i32
  store i32 %73, ptr %13, align 4
  %74 = load ptr, ptr %9, align 8
  %75 = load i32, ptr @hf_ip_opt_overflow, align 4
  %76 = load ptr, ptr %5, align 8
  %77 = load i32, ptr %15, align 4
  %78 = load i32, ptr %12, align 4
  %79 = add i32 %77, %78
  %80 = call ptr @proto_tree_add_item(ptr noundef %74, i32 noundef %75, ptr noundef %76, i32 noundef %79, i32 noundef 1, i32 noundef 0)
  %81 = load i32, ptr %13, align 4
  %82 = and i32 %81, 15
  store i32 %82, ptr %13, align 4
  %83 = load ptr, ptr %9, align 8
  %84 = load i32, ptr @hf_ip_opt_flag, align 4
  %85 = load ptr, ptr %5, align 8
  %86 = load i32, ptr %15, align 4
  %87 = load i32, ptr %12, align 4
  %88 = add i32 %86, %87
  %89 = call ptr @proto_tree_add_item(ptr noundef %83, i32 noundef %84, ptr noundef %85, i32 noundef %88, i32 noundef 1, i32 noundef 0)
  %90 = load i32, ptr %12, align 4
  %91 = add i32 %90, 1
  store i32 %91, ptr %12, align 4
  %92 = load i32, ptr %16, align 4
  %93 = add i32 %92, -1
  store i32 %93, ptr %16, align 4
  br label %94

94:                                               ; preds = %184, %59
  %95 = load i32, ptr %16, align 4
  %96 = icmp sgt i32 %95, 0
  br i1 %96, label %97, label %185

97:                                               ; preds = %94
  %98 = load i32, ptr %13, align 4
  %99 = icmp eq i32 %98, 1
  br i1 %99, label %103, label %100

100:                                              ; preds = %97
  %101 = load i32, ptr %13, align 4
  %102 = icmp eq i32 %101, 3
  br i1 %102, label %103, label %160

103:                                              ; preds = %100, %97
  %104 = load i32, ptr %16, align 4
  %105 = icmp slt i32 %104, 8
  br i1 %105, label %106, label %115

106:                                              ; preds = %103
  %107 = load ptr, ptr %9, align 8
  %108 = load ptr, ptr %6, align 8
  %109 = load ptr, ptr %5, align 8
  %110 = load i32, ptr %15, align 4
  %111 = load i32, ptr %12, align 4
  %112 = add i32 %110, %111
  %113 = load i32, ptr %16, align 4
  %114 = call ptr @proto_tree_add_expert(ptr noundef %107, ptr noundef %108, ptr noundef @ei_ip_subopt_too_long, ptr noundef %109, i32 noundef %112, i32 noundef %113)
  br label %185

115:                                              ; preds = %103
  %116 = load ptr, ptr %5, align 8
  %117 = load i32, ptr %15, align 4
  %118 = load i32, ptr %12, align 4
  %119 = add i32 %117, %118
  %120 = call i32 @tvb_get_ipv4(ptr noundef %116, i32 noundef %119)
  store i32 %120, ptr %14, align 4
  %121 = load ptr, ptr %9, align 8
  %122 = load i32, ptr @hf_ip_opt_time_stamp_addr, align 4
  %123 = call zeroext i1 @proto_field_is_referenced(ptr noundef %121, i32 noundef %122)
  br i1 %123, label %124, label %144

124:                                              ; preds = %115
  %125 = load ptr, ptr %9, align 8
  %126 = load i32, ptr @hf_ip_opt_time_stamp_addr, align 4
  %127 = load ptr, ptr %5, align 8
  %128 = load i32, ptr %15, align 4
  %129 = load i32, ptr %12, align 4
  %130 = add i32 %128, %129
  %131 = load i32, ptr %14, align 4
  %132 = load i32, ptr %14, align 4
  %133 = icmp eq i32 %132, 0
  br i1 %133, label %134, label %135

134:                                              ; preds = %124
  br label %141

135:                                              ; preds = %124
  %136 = load ptr, ptr %6, align 8
  %137 = getelementptr inbounds nuw %struct._packet_info, ptr %136, i32 0, i32 51
  %138 = load ptr, ptr %137, align 8
  %139 = load i32, ptr %14, align 4
  %140 = call ptr @get_hostname_wmem(ptr noundef %138, i32 noundef %139)
  br label %141

141:                                              ; preds = %135, %134
  %142 = phi ptr [ @.str.607, %134 ], [ %140, %135 ]
  %143 = call ptr (ptr, i32, ptr, i32, i32, i32, ptr, ...) @proto_tree_add_ipv4_format_value(ptr noundef %125, i32 noundef %126, ptr noundef %127, i32 noundef %130, i32 noundef 4, i32 noundef %131, ptr noundef @.str.606, ptr noundef %142)
  br label %144

144:                                              ; preds = %141, %115
  %145 = load i32, ptr %12, align 4
  %146 = add i32 %145, 4
  store i32 %146, ptr %12, align 4
  %147 = load i32, ptr %16, align 4
  %148 = sub i32 %147, 4
  store i32 %148, ptr %16, align 4
  %149 = load ptr, ptr %9, align 8
  %150 = load i32, ptr @hf_ip_opt_time_stamp, align 4
  %151 = load ptr, ptr %5, align 8
  %152 = load i32, ptr %15, align 4
  %153 = load i32, ptr %12, align 4
  %154 = add i32 %152, %153
  %155 = call ptr @proto_tree_add_item(ptr noundef %149, i32 noundef %150, ptr noundef %151, i32 noundef %154, i32 noundef 4, i32 noundef 0)
  %156 = load i32, ptr %12, align 4
  %157 = add i32 %156, 4
  store i32 %157, ptr %12, align 4
  %158 = load i32, ptr %16, align 4
  %159 = sub i32 %158, 4
  store i32 %159, ptr %16, align 4
  br label %184

160:                                              ; preds = %100
  %161 = load i32, ptr %16, align 4
  %162 = icmp slt i32 %161, 4
  br i1 %162, label %163, label %172

163:                                              ; preds = %160
  %164 = load ptr, ptr %9, align 8
  %165 = load ptr, ptr %6, align 8
  %166 = load ptr, ptr %5, align 8
  %167 = load i32, ptr %15, align 4
  %168 = load i32, ptr %12, align 4
  %169 = add i32 %167, %168
  %170 = load i32, ptr %16, align 4
  %171 = call ptr @proto_tree_add_expert(ptr noundef %164, ptr noundef %165, ptr noundef @ei_ip_subopt_too_long, ptr noundef %166, i32 noundef %169, i32 noundef %170)
  br label %185

172:                                              ; preds = %160
  %173 = load ptr, ptr %9, align 8
  %174 = load i32, ptr @hf_ip_opt_time_stamp, align 4
  %175 = load ptr, ptr %5, align 8
  %176 = load i32, ptr %15, align 4
  %177 = load i32, ptr %12, align 4
  %178 = add i32 %176, %177
  %179 = call ptr @proto_tree_add_item(ptr noundef %173, i32 noundef %174, ptr noundef %175, i32 noundef %178, i32 noundef 4, i32 noundef 0)
  %180 = load i32, ptr %12, align 4
  %181 = add i32 %180, 4
  store i32 %181, ptr %12, align 4
  %182 = load i32, ptr %16, align 4
  %183 = sub i32 %182, 4
  store i32 %183, ptr %16, align 4
  br label %184

184:                                              ; preds = %172, %144
  br label %94, !llvm.loop !10

185:                                              ; preds = %163, %106, %94
  %186 = load ptr, ptr %5, align 8
  %187 = call i32 @tvb_captured_length(ptr noundef %186)
  call void @llvm.lifetime.end.p0(i64 4, ptr %16) #12
  call void @llvm.lifetime.end.p0(i64 4, ptr %15) #12
  call void @llvm.lifetime.end.p0(i64 4, ptr %14) #12
  call void @llvm.lifetime.end.p0(i64 4, ptr %13) #12
  call void @llvm.lifetime.end.p0(i64 4, ptr %12) #12
  call void @llvm.lifetime.end.p0(i64 4, ptr %11) #12
  call void @llvm.lifetime.end.p0(i64 8, ptr %10) #12
  call void @llvm.lifetime.end.p0(i64 8, ptr %9) #12
  ret i32 %187
}