; Function Attrs: null_pointer_is_valid sspstrong uwtable
define internal i32 @dissect_ipopt_timestamp(ptr noundef %0, ptr noundef %1, ptr noundef %2, ptr readnone captures(none) %3) #1 {
  %5 = alloca ptr, align 8
  call void @llvm.lifetime.start.p0(i64 8, ptr nonnull %5) #9
  %6 = tail call i32 @tvb_reported_length(ptr noundef %0)
  %7 = load i32, ptr @proto_ip_option_timestamp, align 4
  %8 = load i32, ptr @ett_ip_option_timestamp, align 4
  %9 = call fastcc ptr @ip_var_option_header(ptr noundef %2, ptr noundef %1, ptr noundef %0, i32 noundef %7, i32 noundef %8, ptr noundef nonnull %5, i32 noundef %6)
  %10 = tail call zeroext i8 @tvb_get_uint8(ptr noundef %0, i32 noundef 2)
  %11 = zext i8 %10 to i32
  %12 = load i32, ptr @hf_ip_opt_ptr, align 4
  %13 = icmp eq i8 %10, 1
  br i1 %13, label %19, label %14

14:                                               ; preds = %4
  %15 = icmp ult i8 %10, 5
  br i1 %15, label %19, label %16

16:                                               ; preds = %14
  %17 = and i32 %11, 3
  %.not = icmp eq i32 %17, 1
  %18 = select i1 %.not, ptr @.str.589, ptr @.str.605
  br label %19

19:                                               ; preds = %16, %14, %4
  %20 = phi ptr [ @.str.603, %4 ], [ %18, %16 ], [ @.str.604, %14 ]
  %21 = tail call ptr (ptr, i32, ptr, i32, i32, i32, ptr, ...) @proto_tree_add_uint_format_value(ptr noundef %9, i32 noundef %12, ptr noundef %0, i32 noundef 2, i32 noundef 1, i32 noundef %11, ptr noundef nonnull @.str.602, i32 noundef %11, ptr noundef nonnull %20)
  %22 = tail call zeroext i8 @tvb_get_uint8(ptr noundef %0, i32 noundef 3)
  %23 = load i32, ptr @hf_ip_opt_overflow, align 4
  %24 = tail call ptr @proto_tree_add_item(ptr noundef %9, i32 noundef %23, ptr noundef %0, i32 noundef 3, i32 noundef 1, i32 noundef 0)
  %25 = load i32, ptr @hf_ip_opt_flag, align 4
  %26 = tail call ptr @proto_tree_add_item(ptr noundef %9, i32 noundef %25, ptr noundef %0, i32 noundef 3, i32 noundef 1, i32 noundef 0)
  %27 = add i32 %6, -4
  %28 = icmp sgt i32 %27, 0
  br i1 %28, label %.lr.ph, label %.loopexit

.lr.ph:                                           ; preds = %19
  %29 = and i8 %22, 13
  %or.cond = icmp eq i8 %29, 1
  %30 = getelementptr inbounds nuw i8, ptr %1, i64 408
  br i1 %or.cond, label %.lr.ph.split.us, label %.lr.ph.split

.lr.ph.split.us:                                  ; preds = %.lr.ph, %45
  %.089.us = phi i32 [ %50, %45 ], [ %27, %.lr.ph ]
  %.08088.us = phi i32 [ %49, %45 ], [ 4, %.lr.ph ]
  %31 = icmp samesign ult i32 %.089.us, 8
  br i1 %31, label %.split.us, label %32

32:                                               ; preds = %.lr.ph.split.us
  %33 = tail call i32 @tvb_get_ipv4(ptr noundef %0, i32 noundef %.08088.us)
  %34 = load i32, ptr @hf_ip_opt_time_stamp_addr, align 4
  %35 = tail call zeroext i1 @proto_field_is_referenced(ptr noundef %9, i32 noundef %34)
  br i1 %35, label %36, label %45

36:                                               ; preds = %32
  %37 = load i32, ptr @hf_ip_opt_time_stamp_addr, align 4
  %38 = icmp eq i32 %33, 0
  br i1 %38, label %42, label %39

39:                                               ; preds = %36
  %40 = load ptr, ptr %30, align 8
  %41 = tail call ptr @get_hostname_wmem(ptr noundef %40, i32 noundef %33)
  br label %42

42:                                               ; preds = %39, %36
  %43 = phi ptr [ %41, %39 ], [ @.str.607, %36 ]
  %44 = tail call ptr (ptr, i32, ptr, i32, i32, i32, ptr, ...) @proto_tree_add_ipv4_format_value(ptr noundef %9, i32 noundef %37, ptr noundef %0, i32 noundef %.08088.us, i32 noundef 4, i32 noundef %33, ptr noundef nonnull @.str.606, ptr noundef %43)
  br label %45

45:                                               ; preds = %42, %32
  %46 = add nuw i32 %.08088.us, 4
  %47 = load i32, ptr @hf_ip_opt_time_stamp, align 4
  %48 = tail call ptr @proto_tree_add_item(ptr noundef %9, i32 noundef %47, ptr noundef %0, i32 noundef %46, i32 noundef 4, i32 noundef 0)
  %49 = add nuw i32 %.08088.us, 8
  %50 = add nsw i32 %.089.us, -8
  %.not102 = icmp eq i32 %.089.us, 8
  br i1 %.not102, label %.loopexit, label %.lr.ph.split.us, !llvm.loop !14

.lr.ph.split:                                     ; preds = %.lr.ph, %55
  %.089 = phi i32 [ %59, %55 ], [ %27, %.lr.ph ]
  %.08088 = phi i32 [ %58, %55 ], [ 4, %.lr.ph ]
  %51 = icmp samesign ult i32 %.089, 4
  br i1 %51, label %53, label %55

.split.us:                                        ; preds = %.lr.ph.split.us
  %52 = tail call ptr @proto_tree_add_expert(ptr noundef %9, ptr noundef %1, ptr noundef nonnull @ei_ip_subopt_too_long, ptr noundef %0, i32 noundef %.08088.us, i32 noundef %.089.us)
  br label %.loopexit

53:                                               ; preds = %.lr.ph.split
  %54 = tail call ptr @proto_tree_add_expert(ptr noundef %9, ptr noundef %1, ptr noundef nonnull @ei_ip_subopt_too_long, ptr noundef %0, i32 noundef %.08088, i32 noundef %.089)
  br label %.loopexit

55:                                               ; preds = %.lr.ph.split
  %56 = load i32, ptr @hf_ip_opt_time_stamp, align 4
  %57 = tail call ptr @proto_tree_add_item(ptr noundef %9, i32 noundef %56, ptr noundef %0, i32 noundef %.08088, i32 noundef 4, i32 noundef 0)
  %58 = add nuw i32 %.08088, 4
  %59 = add nsw i32 %.089, -4
  %.not101 = icmp eq i32 %.089, 4
  br i1 %.not101, label %.loopexit, label %.lr.ph.split, !llvm.loop !14

.loopexit:                                        ; preds = %55, %45, %19, %53, %.split.us
  %60 = tail call i32 @tvb_captured_length(ptr noundef %0)
  call void @llvm.lifetime.end.p0(i64 8, ptr nonnull %5) #9
  ret i32 %60
}